target datalayout = "e-m:e-p270:32:32-p271:32:32-p272:64:64-i64:64-i128:128-f80:128-n8:16:32:64-S128"
target triple = "x86_64-pc-linux-gnu"

%struct.lean_object = type { i32, i32 }
%struct.lean_ctor_object = type { %struct.lean_object, [0 x ptr] }

; Function Attrs: inlinehint nounwind uwtable
define internal ptr @lean_to_ctor(ptr noundef %0) #0 {
  %2 = alloca ptr, align 8
  store ptr %0, ptr %2, align 8, !tbaa !4
  %3 = load ptr, ptr %2, align 8, !tbaa !4
  ret ptr %3
}

; Function Attrs: inlinehint nounwind uwtable
define internal ptr @lean_ctor_obj_cptr(ptr noundef %0) #0 {
  %2 = alloca ptr, align 8
  store ptr %0, ptr %2, align 8, !tbaa !4
  %3 = load ptr, ptr %2, align 8, !tbaa !4
  %4 = call ptr @lean_to_ctor(ptr noundef %3)
  %5 = getelementptr inbounds nuw %struct.lean_ctor_object, ptr %4, i32 0, i32 1
  %6 = getelementptr inbounds [0 x ptr], ptr %5, i64 0, i64 0
  ret ptr %6
}

; Function Attrs: alwaysinline nounwind uwtable
define internal void @lean_dec_ref(ptr noundef %0) #1 {
  %2 = alloca ptr, align 8
  store ptr %0, ptr %2, align 8, !tbaa !4
  %3 = load ptr, ptr %2, align 8, !tbaa !4
  %4 = getelementptr inbounds nuw %struct.lean_object, ptr %3, i32 0, i32 0
  %5 = load i32, ptr %4, align 4, !tbaa !15
  %6 = icmp sgt i32 %5, 1
  %7 = zext i1 %6 to i32
  %8 = sext i32 %7 to i64
  %9 = call i64 @llvm.expect.i64(i64 %8, i64 1)
  %10 = icmp ne i64 %9, 0
  br i1 %10, label %11, label %16

11:                                               ; preds = %1
  %12 = load ptr, ptr %2, align 8, !tbaa !4
  %13 = getelementptr inbounds nuw %struct.lean_object, ptr %12, i32 0, i32 0
  %14 = load i32, ptr %13, align 4, !tbaa !15
  %15 = add i32 %14, -1
  store i32 %15, ptr %13, align 4, !tbaa !15
  br label %24

16:                                               ; preds = %1
  %17 = load ptr, ptr %2, align 8, !tbaa !4
  %18 = getelementptr inbounds nuw %struct.lean_object, ptr %17, i32 0, i32 0
  %19 = load i32, ptr %18, align 4, !tbaa !15
  %20 = icmp ne i32 %19, 0
  br i1 %20, label %21, label %23

21:                                               ; preds = %16
  %22 = load ptr, ptr %2, align 8, !tbaa !4
  call void @lean_dec_ref_cold(ptr noundef %22)
  br label %23

23:                                               ; preds = %21, %16
  br label %24

24:                                               ; preds = %23, %11
  ret void
}

; Function Attrs: alwaysinline nounwind uwtable
define internal zeroext i1 @lean_is_scalar(ptr noundef %0) #1 {
  %2 = alloca ptr, align 8
  store ptr %0, ptr %2, align 8, !tbaa !4
  %3 = load ptr, ptr %2, align 8, !tbaa !4
  %4 = ptrtoint ptr %3 to i64
  %5 = and i64 %4, 1
  %6 = icmp eq i64 %5, 1
  ret i1 %6
}

; Function Attrs: inlinehint nounwind uwtable
define internal i64 @lean_ctor_get_uint64(ptr noundef %0, i32 noundef %1) #0 {
  %3 = alloca ptr, align 8
  %4 = alloca i32, align 4
  store ptr %0, ptr %3, align 8, !tbaa !4
  store i32 %1, ptr %4, align 4, !tbaa !12
  %5 = load ptr, ptr %3, align 8, !tbaa !4
  %6 = call ptr @lean_ctor_obj_cptr(ptr noundef %5)
  %7 = load i32, ptr %4, align 4, !tbaa !12
  %8 = zext i32 %7 to i64
  %9 = getelementptr inbounds nuw i8, ptr %6, i64 %8
  %10 = load i64, ptr %9, align 8, !tbaa !8
  ret i64 %10
}

; Function Attrs: nounwind uwtable
define ptr @l_Lean_RBNode_insert___at_Lean_Server_FileWorker_handleRpcConnect___spec__1(ptr noundef %0, i64 noundef %1, ptr noundef %2) #2 {
  %4 = alloca ptr, align 8
  %5 = alloca ptr, align 8
  %6 = alloca i64, align 8
  %7 = alloca ptr, align 8
  %8 = alloca i8, align 1
  %9 = alloca ptr, align 8
  %10 = alloca i32, align 4
  %11 = alloca ptr, align 8
  %12 = alloca ptr, align 8
  store ptr %0, ptr %5, align 8, !tbaa !4
  store i64 %1, ptr %6, align 8, !tbaa !8
  store ptr %2, ptr %7, align 8, !tbaa !4
  br label %13

13:                                               ; preds = %3
  call void @llvm.lifetime.start.p0(i64 1, ptr %8) #8
  %14 = load ptr, ptr %5, align 8, !tbaa !4
  %15 = call zeroext i8 @l_Lean_RBNode_isRed___rarg(ptr noundef %14)
  store i8 %15, ptr %8, align 1, !tbaa !14
  %16 = load i8, ptr %8, align 1, !tbaa !14
  %17 = zext i8 %16 to i32
  %18 = icmp eq i32 %17, 0
  br i1 %18, label %19, label %25

19:                                               ; preds = %13
  call void @llvm.lifetime.start.p0(i64 8, ptr %9) #8
  %20 = load ptr, ptr %5, align 8, !tbaa !4
  %21 = load i64, ptr %6, align 8, !tbaa !8
  %22 = load ptr, ptr %7, align 8, !tbaa !4
  %23 = call ptr @l_Lean_RBNode_ins___at_Lean_Server_FileWorker_handleRpcConnect___spec__2(ptr noundef %20, i64 noundef %21, ptr noundef %22)
  store ptr %23, ptr %9, align 8, !tbaa !4
  %24 = load ptr, ptr %9, align 8, !tbaa !4
  store ptr %24, ptr %4, align 8
  store i32 1, ptr %10, align 4
  call void @llvm.lifetime.end.p0(i64 8, ptr %9) #8
  br label %33

25:                                               ; preds = %13
  call void @llvm.lifetime.start.p0(i64 8, ptr %11) #8
  call void @llvm.lifetime.start.p0(i64 8, ptr %12) #8
  %26 = load ptr, ptr %5, align 8, !tbaa !4
  %27 = load i64, ptr %6, align 8, !tbaa !8
  %28 = load ptr, ptr %7, align 8, !tbaa !4
  %29 = call ptr @l_Lean_RBNode_ins___at_Lean_Server_FileWorker_handleRpcConnect___spec__2(ptr noundef %26, i64 noundef %27, ptr noundef %28)
  store ptr %29, ptr %11, align 8, !tbaa !4
  %30 = load ptr, ptr %11, align 8, !tbaa !4
  %31 = call ptr @l_Lean_RBNode_setBlack___rarg(ptr noundef %30)
  store ptr %31, ptr %12, align 8, !tbaa !4
  %32 = load ptr, ptr %12, align 8, !tbaa !4
  store ptr %32, ptr %4, align 8
  store i32 1, ptr %10, align 4
  call void @llvm.lifetime.end.p0(i64 8, ptr %12) #8
  call void @llvm.lifetime.end.p0(i64 8, ptr %11) #8
  br label %33

33:                                               ; preds = %25, %19
  call void @llvm.lifetime.end.p0(i64 1, ptr %8) #8
  %34 = load ptr, ptr %4, align 8
  ret ptr %34
}

; Function Attrs: alwaysinline nounwind uwtable
define internal void @lean_dec(ptr noundef %0) #1 {
  %2 = alloca ptr, align 8
  store ptr %0, ptr %2, align 8, !tbaa !4
  %3 = load ptr, ptr %2, align 8, !tbaa !4
  %4 = call zeroext i1 @lean_is_scalar(ptr noundef %3)
  br i1 %4, label %7, label %5

5:                                                ; preds = %1
  %6 = load ptr, ptr %2, align 8, !tbaa !4
  call void @lean_dec_ref(ptr noundef %6)
  br label %7

7:                                                ; preds = %5, %1
  ret void
}

; Function Attrs: inlinehint nounwind uwtable
define internal i64 @lean_unbox_uint64(ptr noundef %0) #0 {
  %2 = alloca ptr, align 8
  store ptr %0, ptr %2, align 8, !tbaa !4
  %3 = load ptr, ptr %2, align 8, !tbaa !4
  %4 = call i64 @lean_ctor_get_uint64(ptr noundef %3, i32 noundef 0)
  ret i64 %4
}

; Function Attrs: nounwind uwtable
define ptr @l_Lean_RBNode_insert___at_Lean_Server_FileWorker_handleRpcConnect___spec__1___boxed(ptr noundef %0, ptr noundef %1, ptr noundef %2) #2 {
  %4 = alloca ptr, align 8
  %5 = alloca ptr, align 8
  %6 = alloca ptr, align 8
  %7 = alloca i64, align 8
  %8 = alloca ptr, align 8
  store ptr %0, ptr %4, align 8, !tbaa !4
  store ptr %1, ptr %5, align 8, !tbaa !4
  store ptr %2, ptr %6, align 8, !tbaa !4
  br label %9

9:                                                ; preds = %3
  call void @llvm.lifetime.start.p0(i64 8, ptr %7) #8
  call void @llvm.lifetime.start.p0(i64 8, ptr %8) #8
  %10 = load ptr, ptr %5, align 8, !tbaa !4
  %11 = call i64 @lean_unbox_uint64(ptr noundef %10)
  store i64 %11, ptr %7, align 8, !tbaa !8
  %12 = load ptr, ptr %5, align 8, !tbaa !4
  call void @lean_dec(ptr noundef %12)
  %13 = load ptr, ptr %4, align 8, !tbaa !4
  %14 = load i64, ptr %7, align 8, !tbaa !8
  %15 = load ptr, ptr %6, align 8, !tbaa !4
  %16 = call ptr @l_Lean_RBNode_insert___at_Lean_Server_FileWorker_handleRpcConnect___spec__1(ptr noundef %13, i64 noundef %14, ptr noundef %15)
  store ptr %16, ptr %8, align 8, !tbaa !4
  %17 = load ptr, ptr %8, align 8, !tbaa !4
  call void @llvm.lifetime.end.p0(i64 8, ptr %8) #8
  call void @llvm.lifetime.end.p0(i64 8, ptr %7) #8
  ret ptr %17
}