; Function Attrs: nounwind uwtable
define ptr @l_Lean_RBNode_insert___at_Lean_Server_FileWorker_handleRpcConnect___spec__1___boxed(ptr noundef %0, ptr noundef %1, ptr noundef %2) local_unnamed_addr #0 {
  %4 = getelementptr i8, ptr %1, i64 8
  %.val = load i64, ptr %4, align 8, !tbaa !8
  %5 = ptrtoint ptr %1 to i64
  %6 = and i64 %5, 1
  %.not = icmp eq i64 %6, 0
  br i1 %.not, label %7, label %lean_dec.exit

7:                                                ; preds = %3
  %8 = load i32, ptr %1, align 4, !tbaa !10
  %9 = icmp sgt i32 %8, 1
  br i1 %9, label %10, label %12, !prof !13

10:                                               ; preds = %7
  %11 = add nsw i32 %8, -1
  store i32 %11, ptr %1, align 4, !tbaa !10
  br label %lean_dec.exit

12:                                               ; preds = %7
  %.not.i = icmp eq i32 %8, 0
  br i1 %.not.i, label %lean_dec.exit, label %13

13:                                               ; preds = %12
  tail call void @lean_dec_ref_cold(ptr noundef nonnull %1) #7
  br label %lean_dec.exit

lean_dec.exit:                                    ; preds = %13, %12, %10, %3
  %14 = tail call zeroext i8 @l_Lean_RBNode_isRed___rarg(ptr noundef %0) #7
  %15 = icmp eq i8 %14, 0
  %16 = tail call ptr @l_Lean_RBNode_ins___at_Lean_Server_FileWorker_handleRpcConnect___spec__2(ptr noundef %0, i64 noundef %.val, ptr noundef %2)
  br i1 %15, label %l_Lean_RBNode_insert___at_Lean_Server_FileWorker_handleRpcConnect___spec__1.exit, label %17

17:                                               ; preds = %lean_dec.exit
  %18 = tail call ptr @l_Lean_RBNode_setBlack___rarg(ptr noundef %16) #7
  br label %l_Lean_RBNode_insert___at_Lean_Server_FileWorker_handleRpcConnect___spec__1.exit

l_Lean_RBNode_insert___at_Lean_Server_FileWorker_handleRpcConnect___spec__1.exit: ; preds = %lean_dec.exit, %17
  %.0.i = phi ptr [ %18, %17 ], [ %16, %lean_dec.exit ]
  ret ptr %.0.i
}